Certificate:
    Data:
        Version: 3 (0x2)
        Serial Number: 1 (0x1)
        Signature Algorithm: md5WithRSAEncryption
        Issuer: C=AR, ST=Buenos Aires, L=Buenos Aires, O=Gnuler, OU=Gnuler, CN=RootCert/emailAddress=gnuler@gmail.com
        Validity
            Not Before: Jul 18 16:57:19 2009 GMT
            Not After : Jul 18 16:57:19 2010 GMT
        Subject: C=AR, ST=buenos aires, L=buenos aires, O=Gnuler, OU=Gnuler, CN=www.gnuler.com.ar/emailAddress=gnuler@gmail.com
        Subject Public Key Info:
            Public Key Algorithm: rsaEncryption
            RSA Public Key: (1024 bit)
                Modulus (1024 bit):
                    00:a2:f0:11:67:62:47:78:ce:6c:cb:d3:40:2e:95:
                    db:52:82:00:9b:a5:5a:30:53:54:d3:8a:55:44:ff:
                    62:ad:32:e8:21:14:00:c9:5b:ea:61:f3:09:53:b4:
                    5b:8a:6e:7d:90:c5:b0:4d:73:b3:76:82:88:1e:d5:
                    94:7e:94:5c:60:ab:6e:c0:2d:c6:6b:e6:4c:e3:60:
                    0e:56:51:21:2c:df:6d:73:c8:ee:2d:db:82:b6:25:
                    58:78:f6:88:66:d4:5a:ea:45:6f:40:bc:88:76:0e:
                    0a:22:5a:cf:51:95:2b:8a:32:a6:54:75:4b:ef:45:
                    d8:4c:de:fd:58:ad:61:cd:11
                Exponent: 65537 (0x10001)
        X509v3 extensions:
            X509v3 Authority Key Identifier: 
                keyid:5B:30:E8:DB:14:70:B8:37:26:5A:23:AE:44:3F:2C:3E:8F:08:A4:3B

            X509v3 Extended Key Usage: 
                TLS Web Server Authentication, TLS Web Client Authentication, Microsoft Server Gated Crypto, Netscape Server Gated Crypto
            X509v3 Basic Constraints: critical
                CA:FALSE
    Signature Algorithm: md5WithRSAEncryption
        47:18:1a:6a:e6:5b:29:a2:9e:8f:8e:54:6a:f7:21:f0:17:c4:
        fd:a8:67:20:5b:ee:0e:01:5b:b3:68:78:90:9e:0f:5b:54:8d:
        72:a0:ec:db:84:44:6e:84:54:dc:99:1c:6e:9d:2d:c5:c1:be:
        b7:38:f8:ba:20:96:f1:47:ab:5e:51:f4:30:32:1e:e1:f4:de:
        da:ba:a6:81:9c:59:1d:a3:ea:62:5e:8f:7b:a5:f9:bf:b4:ee:
        92:b2:f7:ab:71:40:a8:c2:30:bc:a6:36:19:ca:eb:1d:dc:08:
        9b:0b:67:9e:18:39:95:d2:66:40:5c:46:94:26:08:ed:70:fa:
        5c:f8
-----BEGIN CERTIFICATE-----
MIIDCjCCAnOgAwIBAgIBATANBgkqhkiG9w0BAQQFADCBkTELMAkGA1UEBhMCQVIx
FTATBgNVBAgTDEJ1ZW5vcyBBaXJlczEVMBMGA1UEBxMMQnVlbm9zIEFpcmVzMQ8w
DQYDVQQKEwZHbnVsZXIxDzANBgNVBAsTBkdudWxlcjERMA8GA1UEAxMIUm9vdENl
cnQxHzAdBgkqhkiG9w0BCQEWEGdudWxlckBnbWFpbC5jb20wHhcNMDkwNzE4MTY1
NzE5WhcNMTAwNzE4MTY1NzE5WjCBmjELMAkGA1UEBhMCQVIxFTATBgNVBAgTDGJ1
ZW5vcyBhaXJlczEVMBMGA1UEBxMMYnVlbm9zIGFpcmVzMQ8wDQYDVQQKEwZHbnVs
ZXIxDzANBgNVBAsTBkdudWxlcjEaMBgGA1UEAxMRd3d3LmdudWxlci5jb20uYXIx
HzAdBgkqhkiG9w0BCQEWEGdudWxlckBnbWFpbC5jb20wgZ8wDQYJKoZIhvcNAQEB
BQADgY0AMIGJAoGBAKLwEWdiR3jObMvTQC6V21KCAJulWjBTVNOKVUT/Yq0y6CEU
AMlb6mHzCVO0W4pufZDFsE1zs3aCiB7VlH6UXGCrbsAtxmvmTONgDlZRISzfbXPI
7i3bgrYlWHj2iGbUWupFb0C8iHYOCiJaz1GVK4oyplR1S+9F2Eze/VitYc0RAgMB
AAGjZzBlMB8GA1UdIwQYMBaAFFsw6NsUcLg3JlojrkQ/LD6PCKQ7MDQGA1UdJQQt
MCsGCCsGAQUFBwMBBggrBgEFBQcDAgYKKwYBBAGCNwoDAwYJYIZIAYb4QgQBMAwG
A1UdEwEB/wQCMAAwDQYJKoZIhvcNAQEEBQADgYEARxgaauZbKaKej45Uavch8BfE
/ahnIFvuDgFbs2h4kJ4PW1SNcqDs24REboRU3Jkcbp0txcG+tzj4uiCW8UerXlH0
MDIe4fTe2rqmgZxZHaPqYl6Pe6X5v7TukrL3q3FAqMIwvKY2GcrrHdwImwtnnhg5
ldJmQFxGlCYI7XD6XPg=
-----END CERTIFICATE-----
